Certificate:
    Data:
        Version: 3 (0x2)
        Serial Number: 15125126306002686071 (0xd1e73e3d2c34d077)
    Signature Algorithm: sha256WithRSAEncryption
        Issuer: CN=rasp.se-leg.docker
        Validity
            Not Before: Mar  9 14:51:07 2018 GMT
            Not After : Mar 11 14:51:07 2048 GMT
        Subject: CN=rasp.se-leg.docker
        Subject Public Key Info:
            Public Key Algorithm: rsaEncryption
                Public-Key: (3072 bit)
                Modulus:
                    00:c8:7c:21:3d:38:7b:5a:63:d0:e7:b5:e1:74:fe:
                    9e:a1:26:12:ed:ad:d4:e4:3b:40:c9:f9:87:c6:26:
                    40:17:38:d9:71:5d:c0:94:02:89:74:60:c5:4d:64:
                    1d:b3:67:4a:e5:5c:f1:ff:0e:3c:50:2b:e1:e1:17:
                    99:6f:66:9a:46:37:f7:3d:e6:b3:6a:39:4e:65:4c:
                    e4:0d:8e:bf:3d:9e:03:a4:36:19:31:c5:da:6c:d9:
                    f3:03:7e:5c:96:ec:d6:3c:1b:98:75:7d:b4:5c:56:
                    2b:a6:6e:87:e2:98:be:90:02:ac:66:fd:c8:2b:68:
                    28:dc:94:a7:be:56:02:7e:1f:0e:bf:01:6c:1b:4f:
                    f5:14:5c:eb:34:b5:01:43:db:25:10:5c:74:c6:4b:
                    b3:f0:28:4f:73:1f:f8:29:2a:35:ca:f4:24:64:ac:
                    5c:23:79:2a:a2:8e:dc:60:41:5a:c5:7c:c3:3e:b0:
                    eb:49:5a:95:87:83:19:ef:f4:3e:0f:c3:8c:02:2d:
                    af:6d:ae:b6:09:da:6e:8f:e7:07:9c:92:65:d7:05:
                    64:20:67:ed:47:71:67:48:1e:b7:d4:de:12:e1:51:
                    92:43:4c:0b:11:c9:34:4d:98:85:f7:47:d8:21:93:
                    c7:73:57:7d:81:08:d0:28:d5:99:29:91:26:91:1c:
                    b0:d6:41:1d:72:de:e7:83:d6:14:c5:ab:89:23:96:
                    b4:11:20:8a:18:8c:cb:d5:52:34:d8:b8:c5:f8:fd:
                    65:f9:ce:00:f7:74:0a:9d:d2:79:55:26:a6:ee:50:
                    e3:ca:42:54:04:b1:c4:a4:88:34:db:53:b5:94:5f:
                    74:21:e5:68:b8:ef:8e:a6:c1:9f:6a:28:b9:da:c7:
                    a1:31:5e:28:de:10:cd:9b:49:1e:8e:1e:e2:9f:ea:
                    ef:3f:ee:71:92:e5:28:35:36:75:8d:8d:70:7c:dd:
                    92:fd:76:4e:34:c2:12:f5:dc:d0:f5:c3:0e:32:d0:
                    0c:aa:ce:9e:c0:9e:36:5b:f4:71
                Exponent: 65537 (0x10001)
        X509v3 extensions:
            X509v3 Subject Alternative Name: 
                DNS:rasp.se-leg.docker, URI:https://rasp.se-leg.docker/shibboleth
            X509v3 Subject Key Identifier: 
                C8:07:45:FA:02:D2:2E:EF:EF:88:B9:DF:C7:DA:76:D5:E5:4A:19:2D
    Signature Algorithm: sha256WithRSAEncryption
         4d:2e:e8:63:c1:0e:16:ac:2b:0f:20:d5:8e:58:2f:b0:d2:d0:
         4a:0f:c1:42:44:24:80:5b:53:49:72:17:14:a2:1d:a4:43:36:
         c0:57:a1:8c:e8:d7:b2:4b:4e:5f:f7:4d:ab:81:0f:90:fb:88:
         2e:bf:0a:0a:aa:7e:c9:5f:8a:7b:fe:f0:1a:09:ca:9b:d6:22:
         46:14:5e:17:ef:a6:a8:94:c0:1d:bd:30:d0:ab:b0:d4:3f:9a:
         e4:a6:c5:c5:26:ce:6f:2d:cb:55:19:ab:12:40:0f:9d:72:94:
         0a:fc:f1:65:e9:4f:e1:fb:60:b2:6a:b8:4d:89:5e:47:b5:7e:
         1b:0e:e0:a4:fc:04:41:de:ac:65:23:ab:a7:27:0c:d9:6e:e5:
         18:b2:fb:ec:a2:55:ff:3c:66:9a:de:38:31:6b:b4:fa:87:80:
         ba:3a:74:03:ab:7a:31:86:00:86:a4:40:28:d8:26:45:33:ee:
         5e:0a:a2:cb:aa:35:f4:7d:ff:bc:c6:f1:d0:f7:0f:7f:9d:94:
         bd:f0:a8:70:60:17:2e:4b:3c:4c:21:94:02:06:73:cb:97:6a:
         bd:00:d6:78:77:53:40:47:54:e5:10:cc:74:c6:bf:00:ec:d1:
         ca:91:bb:b5:3b:1f:05:4d:87:a6:81:b7:31:19:00:ea:7d:ec:
         2f:33:43:d0:56:9b:a5:04:61:f2:f5:73:11:55:ee:a1:71:3e:
         bc:ff:d0:81:6e:90:d2:08:e0:9d:1c:cb:21:41:78:12:21:e7:
         a5:fe:89:5f:60:f2:fa:0a:89:aa:c6:9e:35:c2:45:9b:e6:5d:
         dd:be:ad:94:af:5d:3e:18:93:3b:d7:4d:86:00:e6:6a:58:b8:
         d3:99:11:3b:5b:93:18:7b:2b:49:c5:8b:5e:8a:3f:da:ce:5b:
         2d:15:42:1f:7e:c4:76:95:66:0c:86:17:d1:70:8a:0d:2d:8c:
         13:95:2b:49:63:70:af:16:72:5f:d6:86:3f:cc:bb:0c:b2:f1:
         16:8f:88:3d:5b:59
-----BEGIN CERTIFICATE-----
MIIEJDCCAoygAwIBAgIJANHnPj0sNNB3MA0GCSqGSIb3DQEBCwUAMB0xGzAZBgNV
BAMTEnJhc3Auc2UtbGVnLmRvY2tlcjAeFw0xODAzMDkxNDUxMDdaFw00ODAzMTEx
NDUxMDdaMB0xGzAZBgNVBAMTEnJhc3Auc2UtbGVnLmRvY2tlcjCCAaIwDQYJKoZI
hvcNAQEBBQADggGPADCCAYoCggGBAMh8IT04e1pj0Oe14XT+nqEmEu2t1OQ7QMn5
h8YmQBc42XFdwJQCiXRgxU1kHbNnSuVc8f8OPFAr4eEXmW9mmkY39z3ms2o5TmVM
5A2Ovz2eA6Q2GTHF2mzZ8wN+XJbs1jwbmHV9tFxWK6Zuh+KYvpACrGb9yCtoKNyU
p75WAn4fDr8BbBtP9RRc6zS1AUPbJRBcdMZLs/AoT3Mf+CkqNcr0JGSsXCN5KqKO
3GBBWsV8wz6w60lalYeDGe/0Pg/DjAItr22utgnabo/nB5ySZdcFZCBn7UdxZ0ge
t9TeEuFRkkNMCxHJNE2YhfdH2CGTx3NXfYEI0CjVmSmRJpEcsNZBHXLe54PWFMWr
iSOWtBEgihiMy9VSNNi4xfj9ZfnOAPd0Cp3SeVUmpu5Q48pCVASxxKSINNtTtZRf
dCHlaLjvjqbBn2ooudrHoTFeKN4QzZtJHo4e4p/q7z/ucZLlKDU2dY2NcHzdkv12
TjTCEvXc0PXDDjLQDKrOnsCeNlv0cQIDAQABo2cwZTBEBgNVHREEPTA7ghJyYXNw
LnNlLWxlZy5kb2NrZXKGJWh0dHBzOi8vcmFzcC5zZS1sZWcuZG9ja2VyL3NoaWJi
b2xldGgwHQYDVR0OBBYEFMgHRfoC0i7v74i538fadtXlShktMA0GCSqGSIb3DQEB
CwUAA4IBgQBNLuhjwQ4WrCsPINWOWC+w0tBKD8FCRCSAW1NJchcUoh2kQzbAV6GM
6NeyS05f902rgQ+Q+4guvwoKqn7JX4p7/vAaCcqb1iJGFF4X76aolMAdvTDQq7DU
P5rkpsXFJs5vLctVGasSQA+dcpQK/PFl6U/h+2CyarhNiV5HtX4bDuCk/ARB3qxl
I6unJwzZbuUYsvvsolX/PGaa3jgxa7T6h4C6OnQDq3oxhgCGpEAo2CZFM+5eCqLL
qjX0ff+8xvHQ9w9/nZS98KhwYBcuSzxMIZQCBnPLl2q9ANZ4d1NAR1TlEMx0xr8A
7NHKkbu1Ox8FTYemgbcxGQDqfewvM0PQVpulBGHy9XMRVe6hcT68/9CBbpDSCOCd
HMshQXgSIeel/olfYPL6Comqxp41wkWb5l3dvq2Ur10+GJM7102GAOZqWLjTmRE7
W5MYeytJxYteij/azlstFUIffsR2lWYMhhfRcIoNLYwTlStJY3CvFnJf1oY/zLsM
svEWj4g9W1k=
-----END CERTIFICATE-----
